target datalayout = "e-m:e-p270:32:32-p271:32:32-p272:64:64-i64:64-i128:128-f80:128-n8:16:32:64-S128"
target triple = "x86_64-pc-linux-gnu"

%struct.FLAC__OggDecoderAspect = type { i32, i64, %struct.ogg_stream_state, %struct.ogg_sync_state, i32, i32, i32, i32, i32, i32, i32, i32, i32, %struct.ogg_page, i32, %struct.ogg_packet, ptr, %struct.FLAC__OggDecoderAspect_TargetLink, i32, i32, i32, i32, i32, i32 }
%struct.ogg_stream_state = type { ptr, i64, i64, i64, ptr, ptr, i64, i64, i64, i64, [282 x i8], i32, i32, i32, i64, i64, i64, i64 }
%struct.ogg_sync_state = type { ptr, i32, i32, i32, i32, i32, i32 }
%struct.ogg_page = type { ptr, i64, ptr, i64 }
%struct.ogg_packet = type { ptr, i64, i64, i64, i64, i64 }
%struct.FLAC__OggDecoderAspect_TargetLink = type { i64, i64, i64, i64, i64, i32 }
%struct.FLAC__OggDecoderAspect_LinkDetails = type { i64, i64, i64, i64, i32, ptr, i32 }

; Function Attrs: alwaysinline nounwind
define internal ptr @memset.inline(ptr nonnull %0, i32 %1, i64 %2) #3 {
  %4 = alloca ptr, align 8
  %5 = alloca i32, align 4
  %6 = alloca i64, align 8
  store ptr %0, ptr %4, align 8, !tbaa !35
  store i32 %1, ptr %5, align 4, !tbaa !37
  store i64 %2, ptr %6, align 8, !tbaa !36
  %7 = load ptr, ptr %4, align 8, !tbaa !35
  %8 = load i32, ptr %5, align 4, !tbaa !37
  %9 = load i64, ptr %6, align 8, !tbaa !36
  %10 = load ptr, ptr %4, align 8, !tbaa !35
  %11 = call i64 @llvm.objectsize.i64.p0(ptr %10, i1 false, i1 true, i1 false)
  %12 = call ptr @__memset_chk(ptr noundef %7, i32 noundef %8, i64 noundef %9, i64 noundef %11) #9
  ret ptr %12
}

; Function Attrs: inlinehint nounwind sspstrong uwtable
define internal ptr @safe_realloc_nofree_mul_2op_(ptr noundef %0, i64 noundef %1, i64 noundef %2) #2 {
  %4 = alloca ptr, align 8
  %5 = alloca ptr, align 8
  %6 = alloca i64, align 8
  %7 = alloca i64, align 8
  store ptr %0, ptr %5, align 8, !tbaa !35
  store i64 %1, ptr %6, align 8, !tbaa !36
  store i64 %2, ptr %7, align 8, !tbaa !36
  %8 = load i64, ptr %6, align 8, !tbaa !36
  %9 = icmp ne i64 %8, 0
  br i1 %9, label %10, label %13

10:                                               ; preds = %3
  %11 = load i64, ptr %7, align 8, !tbaa !36
  %12 = icmp ne i64 %11, 0
  br i1 %12, label %16, label %13

13:                                               ; preds = %10, %3
  %14 = load ptr, ptr %5, align 8, !tbaa !35
  %15 = call ptr @realloc(ptr noundef %14, i64 noundef 0) #10
  store ptr %15, ptr %4, align 8
  br label %28

16:                                               ; preds = %10
  %17 = load i64, ptr %6, align 8, !tbaa !36
  %18 = load i64, ptr %7, align 8, !tbaa !36
  %19 = udiv i64 -1, %18
  %20 = icmp ugt i64 %17, %19
  br i1 %20, label %21, label %22

21:                                               ; preds = %16
  store ptr null, ptr %4, align 8
  br label %28

22:                                               ; preds = %16
  %23 = load ptr, ptr %5, align 8, !tbaa !35
  %24 = load i64, ptr %6, align 8, !tbaa !36
  %25 = load i64, ptr %7, align 8, !tbaa !36
  %26 = mul i64 %24, %25
  %27 = call ptr @realloc(ptr noundef %23, i64 noundef %26) #10
  store ptr %27, ptr %4, align 8
  br label %28

28:                                               ; preds = %22, %21, %13
  %29 = load ptr, ptr %4, align 8
  ret ptr %29
}

; Function Attrs: nounwind sspstrong uwtable
define internal i32 @check_size_of_link_allocation_(ptr noundef %0) #0 {
  %2 = alloca i32, align 4
  %3 = alloca ptr, align 8
  %4 = alloca ptr, align 8
  %5 = alloca i32, align 4
  store ptr %0, ptr %3, align 8, !tbaa !3
  %6 = load ptr, ptr %3, align 8, !tbaa !3
  %7 = getelementptr inbounds nuw %struct.FLAC__OggDecoderAspect, ptr %6, i32 0, i32 21
  %8 = load i32, ptr %7, align 4, !tbaa !29
  %9 = load ptr, ptr %3, align 8, !tbaa !3
  %10 = getelementptr inbounds nuw %struct.FLAC__OggDecoderAspect, ptr %9, i32 0, i32 20
  %11 = load i32, ptr %10, align 8, !tbaa !33
  %12 = icmp uge i32 %8, %11
  br i1 %12, label %21, label %13

13:                                               ; preds = %1
  %14 = load ptr, ptr %3, align 8, !tbaa !3
  %15 = getelementptr inbounds nuw %struct.FLAC__OggDecoderAspect, ptr %14, i32 0, i32 22
  %16 = load i32, ptr %15, align 8, !tbaa !30
  %17 = load ptr, ptr %3, align 8, !tbaa !3
  %18 = getelementptr inbounds nuw %struct.FLAC__OggDecoderAspect, ptr %17, i32 0, i32 20
  %19 = load i32, ptr %18, align 8, !tbaa !33
  %20 = icmp uge i32 %16, %19
  br i1 %20, label %21, label %58

21:                                               ; preds = %13, %1
  call void @llvm.lifetime.start.p0(i64 8, ptr %4) #9
  store ptr null, ptr %4, align 8, !tbaa !72
  %22 = load ptr, ptr %3, align 8, !tbaa !3
  %23 = getelementptr inbounds nuw %struct.FLAC__OggDecoderAspect, ptr %22, i32 0, i32 16
  %24 = load ptr, ptr %23, align 8, !tbaa !34
  %25 = load ptr, ptr %3, align 8, !tbaa !3
  %26 = getelementptr inbounds nuw %struct.FLAC__OggDecoderAspect, ptr %25, i32 0, i32 20
  %27 = load i32, ptr %26, align 8, !tbaa !33
  %28 = mul i32 2, %27
  %29 = zext i32 %28 to i64
  %30 = call ptr @safe_realloc_nofree_mul_2op_(ptr noundef %24, i64 noundef %29, i64 noundef 56)
  store ptr %30, ptr %4, align 8, !tbaa !72
  %31 = icmp eq ptr null, %30
  br i1 %31, label %32, label %33

32:                                               ; preds = %21
  store i32 0, ptr %2, align 4
  store i32 1, ptr %5, align 4
  br label %55

33:                                               ; preds = %21
  %34 = load ptr, ptr %4, align 8, !tbaa !72
  %35 = load ptr, ptr %3, align 8, !tbaa !3
  %36 = getelementptr inbounds nuw %struct.FLAC__OggDecoderAspect, ptr %35, i32 0, i32 16
  store ptr %34, ptr %36, align 8, !tbaa !34
  %37 = load ptr, ptr %3, align 8, !tbaa !3
  %38 = getelementptr inbounds nuw %struct.FLAC__OggDecoderAspect, ptr %37, i32 0, i32 16
  %39 = load ptr, ptr %38, align 8, !tbaa !34
  %40 = load ptr, ptr %3, align 8, !tbaa !3
  %41 = getelementptr inbounds nuw %struct.FLAC__OggDecoderAspect, ptr %40, i32 0, i32 20
  %42 = load i32, ptr %41, align 8, !tbaa !33
  %43 = zext i32 %42 to i64
  %44 = getelementptr inbounds nuw %struct.FLAC__OggDecoderAspect_LinkDetails, ptr %39, i64 %43
  %45 = load ptr, ptr %3, align 8, !tbaa !3
  %46 = getelementptr inbounds nuw %struct.FLAC__OggDecoderAspect, ptr %45, i32 0, i32 20
  %47 = load i32, ptr %46, align 8, !tbaa !33
  %48 = zext i32 %47 to i64
  %49 = mul i64 %48, 56
  %50 = call ptr @memset.inline(ptr noundef %44, i32 noundef 0, i64 noundef %49) #9
  %51 = load ptr, ptr %3, align 8, !tbaa !3
  %52 = getelementptr inbounds nuw %struct.FLAC__OggDecoderAspect, ptr %51, i32 0, i32 20
  %53 = load i32, ptr %52, align 8, !tbaa !33
  %54 = mul i32 %53, 2
  store i32 %54, ptr %52, align 8, !tbaa !33
  store i32 0, ptr %5, align 4
  br label %55

55:                                               ; preds = %33, %32
  call void @llvm.lifetime.end.p0(i64 8, ptr %4) #9
  %56 = load i32, ptr %5, align 4
  switch i32 %56, label %61 [
    i32 0, label %57
    i32 1, label %59
  ]

57:                                               ; preds = %55
  br label %58

58:                                               ; preds = %57, %13
  store i32 1, ptr %2, align 4
  br label %59

59:                                               ; preds = %58, %55
  %60 = load i32, ptr %2, align 4
  ret i32 %60

61:                                               ; preds = %55
  unreachable
}