; Function Attrs: nounwind sspstrong uwtable
define internal fastcc range(i32 0, 2) i32 @check_size_of_link_allocation_(ptr noundef captures(none) %0) unnamed_addr #0 {
  %2 = getelementptr inbounds nuw i8, ptr %0, i64 652
  %3 = load i32, ptr %2, align 4, !tbaa !33
  %4 = getelementptr inbounds nuw i8, ptr %0, i64 648
  %5 = load i32, ptr %4, align 8, !tbaa !28
  %.not = icmp ult i32 %3, %5
  br i1 %.not, label %6, label %9

6:                                                ; preds = %1
  %7 = getelementptr inbounds nuw i8, ptr %0, i64 656
  %8 = load i32, ptr %7, align 8, !tbaa !34
  %.not16 = icmp ult i32 %8, %5
  br i1 %.not16, label %22, label %9

9:                                                ; preds = %6, %1
  %10 = getelementptr inbounds nuw i8, ptr %0, i64 584
  %11 = load ptr, ptr %10, align 8, !tbaa !27
  %12 = shl i32 %5, 1
  %13 = zext i32 %12 to i64
  %14 = mul nuw nsw i64 %13, 56
  %15 = tail call noalias noundef ptr @realloc(ptr noundef %11, i64 noundef %14) #16
  %16 = icmp eq ptr %15, null
  br i1 %16, label %22, label %.thread

.thread:                                          ; preds = %9
  store ptr %15, ptr %10, align 8, !tbaa !27
  %17 = load i32, ptr %4, align 8, !tbaa !28
  %18 = zext i32 %17 to i64
  %19 = getelementptr inbounds nuw %struct.FLAC__OggDecoderAspect_LinkDetails, ptr %15, i64 %18
  %20 = mul nuw nsw i64 %18, 56
  tail call void @llvm.memset.p0.i64(ptr noundef nonnull align 1 %19, i8 noundef 0, i64 noundef range(i64 0, 240518168521) %20, i1 noundef false) #15
  %21 = shl i32 %17, 1
  store i32 %21, ptr %4, align 8, !tbaa !28
  br label %22

22:                                               ; preds = %6, %.thread, %9
  %.1 = phi i32 [ 0, %9 ], [ 1, %.thread ], [ 1, %6 ]
  ret i32 %.1
}